target datalayout = "e-m:e-p270:32:32-p271:32:32-p272:64:64-i64:64-i128:128-f80:128-n8:16:32:64-S128"
target triple = "x86_64-pc-linux-gnu"

%struct.translation_ctx_st = type { ptr, i32, i32, ptr, i32, i32, ptr, i64, ptr, ptr, [50 x i8], ptr, ptr, i64 }
%struct.evp_pkey_ctx_st = type { i32, ptr, ptr, ptr, ptr, %union.anon, %struct.anon.4, ptr, ptr, ptr, i32, i32, ptr, ptr, ptr, ptr, ptr, i8, ptr }
%union.anon = type { %struct.anon.0 }
%struct.anon.0 = type { ptr, ptr }
%struct.anon.4 = type { ptr, ptr, i64, i8 }

@.str = private unnamed_addr constant [46 x i8] c"../openssl/crypto/evp/ctrl_params_translate.c\00", align 1
@__func__.fix_group_ecx = private unnamed_addr constant [14 x i8] c"fix_group_ecx\00", align 1

; Function Attrs: nounwind uwtable
define internal i32 @fix_group_ecx(i32 noundef %0, ptr noundef %1, ptr noundef %2) #0 {
  %4 = alloca i32, align 4
  %5 = alloca i32, align 4
  %6 = alloca ptr, align 8
  %7 = alloca ptr, align 8
  %8 = alloca ptr, align 8
  %9 = alloca i32, align 4
  store i32 %0, ptr %5, align 4, !tbaa !8
  store ptr %1, ptr %6, align 8, !tbaa !11
  store ptr %2, ptr %7, align 8, !tbaa !43
  call void @llvm.lifetime.start.p0(i64 8, ptr %8) #9
  store ptr null, ptr %8, align 8, !tbaa !50
  %10 = load i32, ptr %5, align 4, !tbaa !8
  switch i32 %10, label %44 [
    i32 7, label %11
    i32 8, label %23
  ]

11:                                               ; preds = %3
  %12 = load ptr, ptr %7, align 8, !tbaa !43
  %13 = getelementptr inbounds nuw %struct.translation_ctx_st, ptr %12, i32 0, i32 0
  %14 = load ptr, ptr %13, align 8, !tbaa !41
  %15 = getelementptr inbounds nuw %struct.evp_pkey_ctx_st, ptr %14, i32 0, i32 0
  %16 = load i32, ptr %15, align 8, !tbaa !45
  %17 = and i32 %16, 6
  %18 = icmp ne i32 %17, 0
  br i1 %18, label %20, label %19

19:                                               ; preds = %11
  store i32 0, ptr %4, align 4
  store i32 1, ptr %9, align 4
  br label %45

20:                                               ; preds = %11
  %21 = load ptr, ptr %7, align 8, !tbaa !43
  %22 = getelementptr inbounds nuw %struct.translation_ctx_st, ptr %21, i32 0, i32 1
  store i32 0, ptr %22, align 8, !tbaa !35
  store i32 1, ptr %4, align 4
  store i32 1, ptr %9, align 4
  br label %45

23:                                               ; preds = %3
  %24 = load ptr, ptr %7, align 8, !tbaa !43
  %25 = getelementptr inbounds nuw %struct.translation_ctx_st, ptr %24, i32 0, i32 8
  %26 = load ptr, ptr %25, align 8, !tbaa !42
  %27 = call i32 @OSSL_PARAM_get_utf8_string_ptr(ptr noundef %26, ptr noundef %8)
  %28 = icmp eq i32 %27, 0
  br i1 %28, label %38, label %29

29:                                               ; preds = %23
  %30 = load ptr, ptr %7, align 8, !tbaa !43
  %31 = getelementptr inbounds nuw %struct.translation_ctx_st, ptr %30, i32 0, i32 0
  %32 = load ptr, ptr %31, align 8, !tbaa !41
  %33 = getelementptr inbounds nuw %struct.evp_pkey_ctx_st, ptr %32, i32 0, i32 3
  %34 = load ptr, ptr %33, align 8, !tbaa !81
  %35 = load ptr, ptr %8, align 8, !tbaa !50
  %36 = call i32 @OPENSSL_strcasecmp(ptr noundef %34, ptr noundef %35)
  %37 = icmp ne i32 %36, 0
  br i1 %37, label %38, label %41

38:                                               ; preds = %29, %23
  call void @ERR_new()
  call void @ERR_set_debug(ptr noundef @.str, i32 noundef 2055, ptr noundef @__func__.fix_group_ecx)
  call void (i32, i32, ptr, ...) @ERR_set_error(i32 noundef 6, i32 noundef 524550, ptr noundef null)
  %39 = load ptr, ptr %7, align 8, !tbaa !43
  %40 = getelementptr inbounds nuw %struct.translation_ctx_st, ptr %39, i32 0, i32 5
  store i32 0, ptr %40, align 4, !tbaa !39
  store i32 0, ptr %4, align 4
  store i32 1, ptr %9, align 4
  br label %45

41:                                               ; preds = %29
  %42 = load ptr, ptr %7, align 8, !tbaa !43
  %43 = getelementptr inbounds nuw %struct.translation_ctx_st, ptr %42, i32 0, i32 5
  store i32 1, ptr %43, align 4, !tbaa !39
  store i32 1, ptr %4, align 4
  store i32 1, ptr %9, align 4
  br label %45

44:                                               ; preds = %3
  store i32 0, ptr %4, align 4
  store i32 1, ptr %9, align 4
  br label %45

45:                                               ; preds = %44, %41, %38, %20, %19
  call void @llvm.lifetime.end.p0(i64 8, ptr %8) #9
  %46 = load i32, ptr %4, align 4
  ret i32 %46
}