; Function Attrs: nounwind uwtable
define internal range(i32 0, 2) i32 @fix_group_ecx(i32 noundef %0, ptr readnone captures(none) %1, ptr noundef captures(none) %2) #0 {
  %4 = alloca ptr, align 8
  call void @llvm.lifetime.start.p0(i64 8, ptr nonnull %4) #8
  store ptr null, ptr %4, align 8, !tbaa !44
  switch i32 %0, label %26 [
    i32 7, label %5
    i32 8, label %11
  ]

5:                                                ; preds = %3
  %6 = load ptr, ptr %2, align 8, !tbaa !36
  %7 = load i32, ptr %6, align 8, !tbaa !39
  %8 = and i32 %7, 6
  %.not7 = icmp eq i32 %8, 0
  br i1 %.not7, label %26, label %9

9:                                                ; preds = %5
  %10 = getelementptr inbounds nuw i8, ptr %2, i64 8
  store i32 0, ptr %10, align 8, !tbaa !29
  br label %26

11:                                               ; preds = %3
  %12 = getelementptr inbounds nuw i8, ptr %2, i64 48
  %13 = load ptr, ptr %12, align 8, !tbaa !37
  %14 = call i32 @OSSL_PARAM_get_utf8_string_ptr(ptr noundef %13, ptr noundef nonnull %4) #8
  %15 = icmp eq i32 %14, 0
  br i1 %15, label %22, label %16

16:                                               ; preds = %11
  %17 = load ptr, ptr %2, align 8, !tbaa !36
  %18 = getelementptr inbounds nuw i8, ptr %17, i64 24
  %19 = load ptr, ptr %18, align 8, !tbaa !76
  %20 = load ptr, ptr %4, align 8, !tbaa !44
  %21 = call i32 @OPENSSL_strcasecmp(ptr noundef %19, ptr noundef %20) #8
  %.not = icmp eq i32 %21, 0
  br i1 %.not, label %24, label %22

22:                                               ; preds = %16, %11
  call void @ERR_new() #8
  call void @ERR_set_debug(ptr noundef nonnull @.str, i32 noundef 2055, ptr noundef nonnull @__func__.fix_group_ecx) #8
  call void (i32, i32, ptr, ...) @ERR_set_error(i32 noundef 6, i32 noundef 524550, ptr noundef null) #8
  %23 = getelementptr inbounds nuw i8, ptr %2, i64 28
  store i32 0, ptr %23, align 4, !tbaa !34
  br label %26

24:                                               ; preds = %16
  %25 = getelementptr inbounds nuw i8, ptr %2, i64 28
  store i32 1, ptr %25, align 4, !tbaa !34
  br label %26

26:                                               ; preds = %3, %5, %24, %22, %9
  %.0 = phi i32 [ 0, %22 ], [ 1, %24 ], [ 1, %9 ], [ 0, %5 ], [ 0, %3 ]
  call void @llvm.lifetime.end.p0(i64 8, ptr nonnull %4) #8
  ret i32 %.0
}